; Function Attrs: cold inlinehint mustprogress uwtable
define internal fastcc void @_ZNSt3__18__invokeB8ne210000IRN12_GLOBAL__N_111DumpVisitorEJPKNS1_16itanium_demangle12BinaryFPTypeEEEEDTclclsr3stdE7declvalIT_EEspclsr3stdE7declvalIT0_EEEEOS8_DpOS9_(ptr noundef nonnull align 4 captures(none) dereferenceable(5) %0, ptr noundef nonnull readonly align 8 captures(none) dereferenceable(8) %1) unnamed_addr #16 {
  %3 = load ptr, ptr %1, align 8, !tbaa !78
  %4 = load i32, ptr %0, align 4, !tbaa !4
  %5 = add i32 %4, 2
  store i32 %5, ptr %0, align 4, !tbaa !4
  %6 = load ptr, ptr @stderr, align 8, !tbaa !11
  %7 = tail call i32 (ptr, ptr, ...) @fprintf(ptr noundef %6, ptr noundef nonnull @.str.8, ptr noundef nonnull @.str.59) #36
  %8 = getelementptr inbounds nuw i8, ptr %3, i64 16
  %9 = load ptr, ptr %8, align 8, !tbaa !309
  %10 = load ptr, ptr @stderr, align 8, !tbaa !11
  %fputc.i2 = tail call i32 @fputc(i32 10, ptr %10)
  %11 = load i32, ptr %0, align 4, !tbaa !4
  %.not4.i = icmp eq i32 %11, 0
  br i1 %.not4.i, label %_ZNK12_GLOBAL__N_116itanium_demangle12BinaryFPType5matchINS_11DumpVisitor14CtorArgPrinterEEEvT_.exit, label %.lr.ph.i

.lr.ph.i:                                         ; preds = %2, %.lr.ph.i
  %.05.i = phi i32 [ %13, %.lr.ph.i ], [ 0, %2 ]
  %12 = load ptr, ptr @stderr, align 8, !tbaa !11
  %fputc3.i = tail call i32 @fputc(i32 32, ptr %12)
  %13 = add i32 %.05.i, 1
  %14 = load i32, ptr %0, align 4, !tbaa !4
  %.not.i = icmp eq i32 %13, %14
  br i1 %.not.i, label %_ZNK12_GLOBAL__N_116itanium_demangle12BinaryFPType5matchINS_11DumpVisitor14CtorArgPrinterEEEvT_.exit, label %.lr.ph.i, !llvm.loop !14

_ZNK12_GLOBAL__N_116itanium_demangle12BinaryFPType5matchINS_11DumpVisitor14CtorArgPrinterEEEvT_.exit: ; preds = %.lr.ph.i, %2
  %15 = getelementptr inbounds nuw i8, ptr %0, i64 4
  store i8 0, ptr %15, align 4, !tbaa !10
  %.not.i.i = icmp eq ptr %9, null
  br i1 %.not.i.i, label %17, label %16

16:                                               ; preds = %_ZNK12_GLOBAL__N_116itanium_demangle12BinaryFPType5matchINS_11DumpVisitor14CtorArgPrinterEEEvT_.exit
  tail call fastcc void @_ZNK12_GLOBAL__N_116itanium_demangle4Node5visitINSt3__117reference_wrapperINS_11DumpVisitorEEEEEvT_(ptr noundef nonnull align 8 dereferenceable(11) %9, ptr nonnull align 4 dereferenceable(5) %0)
  br label %_ZN12_GLOBAL__N_111DumpVisitor23printWithPendingNewlineIPKNS_16itanium_demangle4NodeEEEvT_.exit

17:                                               ; preds = %_ZNK12_GLOBAL__N_116itanium_demangle12BinaryFPType5matchINS_11DumpVisitor14CtorArgPrinterEEEvT_.exit
  %18 = load ptr, ptr @stderr, align 8, !tbaa !11
  %19 = tail call i64 @fwrite(ptr nonnull @.str.13, i64 6, i64 1, ptr %18) #37
  br label %_ZN12_GLOBAL__N_111DumpVisitor23printWithPendingNewlineIPKNS_16itanium_demangle4NodeEEEvT_.exit

_ZN12_GLOBAL__N_111DumpVisitor23printWithPendingNewlineIPKNS_16itanium_demangle4NodeEEEvT_.exit: ; preds = %16, %17
  store i8 1, ptr %15, align 4, !tbaa !10
  %20 = load ptr, ptr @stderr, align 8, !tbaa !11
  %fputc.i = tail call i32 @fputc(i32 41, ptr %20)
  %21 = load i32, ptr %0, align 4, !tbaa !4
  %22 = add i32 %21, -2
  store i32 %22, ptr %0, align 4, !tbaa !4
  ret void
}